(dp0
S'starting_wd'
p1
S'/home/lior/final_project/alice/example/voron/scenarios/Template/workload_dir'
p2
sS'workload_dir'
p3
S'/home/lior/final_project/alice/example/voron/scenarios/Template/workload_dir'
p4
s.