(dp0
S'starting_wd'
p1
S'/home/eden/Projects/Final_Project_RavenDB/alice/example/HelloWorld/CS_Example/workload_dir'
p2
sS'workload_dir'
p3
S'/home/eden/Projects/Final_Project_RavenDB/alice/example/HelloWorld/CS_Example/workload_dir'
p4
s.